target datalayout = "e-m:e-p270:32:32-p271:32:32-p272:64:64-i64:64-i128:128-f80:128-n8:16:32:64-S128"
target triple = "x86_64-pc-linux-gnu"

%"class.llvm::SmallVectorBase.22" = type { ptr, i32, i32 }
%"class.llvm::BumpPtrAllocatorImpl" = type { ptr, ptr, %"class.llvm::SmallVector.235", %"class.llvm::SmallVector.240", i64, i64 }
%"class.llvm::SmallVector.235" = type { %"class.llvm::SmallVectorImpl.236", %"struct.llvm::SmallVectorStorage.239" }
%"class.llvm::SmallVectorImpl.236" = type { %"class.llvm::SmallVectorTemplateBase.237" }
%"class.llvm::SmallVectorTemplateBase.237" = type { %"class.llvm::SmallVectorTemplateCommon.238" }
%"class.llvm::SmallVectorTemplateCommon.238" = type { %"class.llvm::SmallVectorBase.22" }
%"struct.llvm::SmallVectorStorage.239" = type { [32 x i8] }
%"class.llvm::SmallVector.240" = type { %"class.llvm::SmallVectorImpl.241" }
%"class.llvm::SmallVectorImpl.241" = type { %"class.llvm::SmallVectorTemplateBase.242" }
%"class.llvm::SmallVectorTemplateBase.242" = type { %"class.llvm::SmallVectorTemplateCommon.243" }
%"class.llvm::SmallVectorTemplateCommon.243" = type { %"class.llvm::SmallVectorBase.22" }
%"class.clang::DeclarationName" = type { i64 }
%"class.clang::GlobalDecl" = type { %"class.llvm::PointerIntPair.465", i32, [4 x i8] }
%"class.llvm::PointerIntPair.465" = type { %"struct.llvm::detail::PunnedPointer.466" }
%"struct.llvm::detail::PunnedPointer.466" = type { [8 x i8] }
%"class.clang::SourceLocation" = type { i32 }
%"class.llvm::raw_ostream" = type { ptr, i32, ptr, ptr, ptr, i8, i32 }
%"class.(anonymous namespace)::MicrosoftCXXNameMangler" = type <{ ptr, ptr, ptr, i32, [4 x i8], %"class.llvm::SmallVector.588", %"class.llvm::DenseMap.593", %"class.llvm::DenseMap.593", %"class.llvm::DenseMap.596", %"class.llvm::BumpPtrAllocatorImpl", %"class.llvm::StringSaver", %"class.std::set", i8, [7 x i8] }>
%"class.llvm::SmallVector.588" = type { %"class.llvm::SmallVectorImpl.589", %"struct.llvm::SmallVectorStorage.592" }
%"class.llvm::SmallVectorImpl.589" = type { %"class.llvm::SmallVectorTemplateBase.590" }
%"class.llvm::SmallVectorTemplateBase.590" = type { %"class.llvm::SmallVectorTemplateCommon.591" }
%"class.llvm::SmallVectorTemplateCommon.591" = type { %"class.llvm::SmallVectorBase.22" }
%"struct.llvm::SmallVectorStorage.592" = type { [320 x i8] }
%"class.llvm::DenseMap.593" = type <{ ptr, i32, i32, i32, [4 x i8] }>
%"class.llvm::DenseMap.596" = type <{ ptr, i32, i32, i32, [4 x i8] }>
%"class.llvm::StringSaver" = type { ptr }
%"class.std::set" = type { %"class.std::_Rb_tree.599" }
%"class.std::_Rb_tree.599" = type { %"struct.std::_Rb_tree<std::pair<int, bool>, std::pair<int, bool>, std::_Identity<std::pair<int, bool>>, std::less<std::pair<int, bool>>>::_Rb_tree_impl" }
%"struct.std::_Rb_tree<std::pair<int, bool>, std::pair<int, bool>, std::_Identity<std::pair<int, bool>>, std::less<std::pair<int, bool>>>::_Rb_tree_impl" = type { [8 x i8], %"struct.std::_Rb_tree_header" }
%"struct.std::_Rb_tree_header" = type { %"struct.std::_Rb_tree_node_base", i64 }
%"struct.std::_Rb_tree_node_base" = type { i32, ptr, ptr, ptr }
%"struct.llvm::detail::PunnedPointer.508" = type { [8 x i8] }
%"class.clang::NamedDecl" = type { %"class.clang::Decl.base", %"class.clang::DeclarationName" }
%"class.clang::Decl.base" = type <{ ptr, %"class.llvm::PointerIntPair.509", %"class.llvm::PointerUnion.511", %"class.clang::SourceLocation", i32, i8 }>
%"class.llvm::PointerIntPair.509" = type { %"struct.llvm::detail::PunnedPointer.510" }
%"struct.llvm::detail::PunnedPointer.510" = type { [8 x i8] }
%"class.llvm::PointerUnion.511" = type { %"class.llvm::pointer_union_detail::PointerUnionMembers.512" }
%"class.llvm::pointer_union_detail::PointerUnionMembers.512" = type { %"class.llvm::pointer_union_detail::PointerUnionMembers.513" }
%"class.llvm::pointer_union_detail::PointerUnionMembers.513" = type { %"class.llvm::pointer_union_detail::PointerUnionMembers.514" }
%"class.llvm::pointer_union_detail::PointerUnionMembers.514" = type { %"class.llvm::PointerIntPair.515" }
%"class.llvm::PointerIntPair.515" = type { %"struct.llvm::detail::PunnedPointer.508" }
%class.anon.880 = type { ptr, ptr }

; Function Attrs: mustprogress nounwind uwtable
define linkonce_odr hidden noundef ptr @_ZN4llvm21PointerLikeTypeTraitsIPN5clang4DeclEE18getFromVoidPointerEPv(ptr noundef %0) #0 comdat align 2 {
  %2 = alloca ptr, align 8
  store ptr %0, ptr %2, align 8
  %3 = load ptr, ptr %2, align 8
  ret ptr %3
}

; Function Attrs: mustprogress nounwind uwtable
define linkonce_odr hidden noundef ptr @_ZN4llvm21PointerLikeTypeTraitsIPN5clang4DeclEE16getAsVoidPointerES3_(ptr noundef %0) #0 comdat align 2 {
  %2 = alloca ptr, align 8
  store ptr %0, ptr %2, align 8
  %3 = load ptr, ptr %2, align 8
  ret ptr %3
}

; Function Attrs: mustprogress nounwind uwtable
define linkonce_odr hidden noundef ptr @_ZN4llvm21PointerLikeTypeTraitsIPKN5clang4DeclEE18getFromVoidPointerEPKv(ptr noundef %0) #0 comdat align 2 {
  %2 = alloca ptr, align 8
  store ptr %0, ptr %2, align 8
  %3 = load ptr, ptr %2, align 8
  %4 = call noundef ptr @_ZN4llvm21PointerLikeTypeTraitsIPN5clang4DeclEE18getFromVoidPointerEPv(ptr noundef %3)
  ret ptr %4
}

; Function Attrs: mustprogress nounwind uwtable
define linkonce_odr hidden noundef ptr @_ZN4llvm21PointerLikeTypeTraitsIPKN5clang4DeclEE16getAsVoidPointerES4_(ptr noundef %0) #0 comdat align 2 {
  %2 = alloca ptr, align 8
  store ptr %0, ptr %2, align 8
  %3 = load ptr, ptr %2, align 8
  %4 = call noundef ptr @_ZN4llvm21PointerLikeTypeTraitsIPN5clang4DeclEE16getAsVoidPointerES3_(ptr noundef %3)
  ret ptr %4
}

; Function Attrs: mustprogress nounwind uwtable
define linkonce_odr hidden noundef i64 @_ZNK4llvm6detail13PunnedPointerIPKN5clang4DeclEE5asIntEv(ptr noundef nonnull align 8 dereferenceable(8) %0) #0 comdat align 2 {
  %2 = alloca ptr, align 8
  %3 = alloca i64, align 8
  store ptr %0, ptr %2, align 8
  %4 = load ptr, ptr %2, align 8
  store i64 0, ptr %3, align 8
  %5 = getelementptr inbounds nuw %"struct.llvm::detail::PunnedPointer.466", ptr %4, i32 0, i32 0
  %6 = getelementptr inbounds [8 x i8], ptr %5, i64 0, i64 0
  call void @llvm.memcpy.p0.p0.i64(ptr align 8 %3, ptr align 8 %6, i64 8, i1 false)
  %7 = load i64, ptr %3, align 8
  ret i64 %7
}

; Function Attrs: mustprogress nounwind uwtable
define linkonce_odr hidden noundef ptr @_ZN4llvm18PointerIntPairInfoIPKN5clang4DeclELj3ENS_21PointerLikeTypeTraitsIS4_EEE10getPointerEl(i64 noundef %0) #0 comdat align 2 {
  %2 = alloca i64, align 8
  store i64 %0, ptr %2, align 8
  %3 = load i64, ptr %2, align 8
  %4 = and i64 %3, -8
  %5 = inttoptr i64 %4 to ptr
  %6 = call noundef ptr @_ZN4llvm21PointerLikeTypeTraitsIPKN5clang4DeclEE18getFromVoidPointerEPKv(ptr noundef %5)
  ret ptr %6
}

; Function Attrs: mustprogress nounwind uwtable
define linkonce_odr hidden noundef i64 @_ZN4llvm18PointerIntPairInfoIPKN5clang4DeclELj3ENS_21PointerLikeTypeTraitsIS4_EEE13updatePointerElS4_(i64 noundef %0, ptr noundef %1) #0 comdat align 2 {
  %3 = alloca i64, align 8
  %4 = alloca ptr, align 8
  %5 = alloca i64, align 8
  store i64 %0, ptr %3, align 8
  store ptr %1, ptr %4, align 8
  %6 = load ptr, ptr %4, align 8
  %7 = call noundef ptr @_ZN4llvm21PointerLikeTypeTraitsIPKN5clang4DeclEE16getAsVoidPointerES4_(ptr noundef %6)
  %8 = ptrtoint ptr %7 to i64
  store i64 %8, ptr %5, align 8
  %9 = load i64, ptr %5, align 8
  %10 = load i64, ptr %3, align 8
  %11 = and i64 %10, 7
  %12 = or i64 %9, %11
  ret i64 %12
}

; Function Attrs: mustprogress nounwind uwtable
define linkonce_odr hidden noundef i64 @_ZNK4llvm6detail13PunnedPointerIPKN5clang4DeclEEcvlEv(ptr noundef nonnull align 8 dereferenceable(8) %0) #0 comdat align 2 {
  %2 = alloca ptr, align 8
  store ptr %0, ptr %2, align 8
  %3 = load ptr, ptr %2, align 8
  %4 = call noundef i64 @_ZNK4llvm6detail13PunnedPointerIPKN5clang4DeclEE5asIntEv(ptr noundef nonnull align 8 dereferenceable(8) %3)
  ret i64 %4
}

; Function Attrs: mustprogress nounwind uwtable
define linkonce_odr hidden noundef nonnull align 8 dereferenceable(8) ptr @_ZN4llvm6detail13PunnedPointerIPKN5clang4DeclEEaSEl(ptr noundef nonnull align 8 dereferenceable(8) %0, i64 noundef %1) #0 comdat align 2 {
  %3 = alloca ptr, align 8
  %4 = alloca i64, align 8
  store ptr %0, ptr %3, align 8
  store i64 %1, ptr %4, align 8
  %5 = load ptr, ptr %3, align 8
  %6 = getelementptr inbounds nuw %"struct.llvm::detail::PunnedPointer.466", ptr %5, i32 0, i32 0
  %7 = getelementptr inbounds [8 x i8], ptr %6, i64 0, i64 0
  call void @llvm.memcpy.p0.p0.i64(ptr align 8 %7, ptr align 8 %4, i64 8, i1 false)
  ret ptr %5
}

; Function Attrs: mustprogress nounwind uwtable
define linkonce_odr hidden noundef ptr @_ZNK4llvm14PointerIntPairIPKN5clang4DeclELj3EjNS_21PointerLikeTypeTraitsIS4_EENS_18PointerIntPairInfoIS4_Lj3ES6_EEE10getPointerEv(ptr noundef nonnull align 8 dereferenceable(8) %0) #0 comdat align 2 {
  %2 = alloca ptr, align 8
  store ptr %0, ptr %2, align 8
  %3 = load ptr, ptr %2, align 8
  %4 = getelementptr inbounds nuw %"class.llvm::PointerIntPair.465", ptr %3, i32 0, i32 0
  %5 = call noundef i64 @_ZNK4llvm6detail13PunnedPointerIPKN5clang4DeclEEcvlEv(ptr noundef nonnull align 8 dereferenceable(8) %4)
  %6 = call noundef ptr @_ZN4llvm18PointerIntPairInfoIPKN5clang4DeclELj3ENS_21PointerLikeTypeTraitsIS4_EEE10getPointerEl(i64 noundef %5)
  ret ptr %6
}

; Function Attrs: mustprogress nounwind uwtable
define linkonce_odr hidden void @_ZNR4llvm14PointerIntPairIPKN5clang4DeclELj3EjNS_21PointerLikeTypeTraitsIS4_EENS_18PointerIntPairInfoIS4_Lj3ES6_EEE10setPointerES4_(ptr noundef nonnull align 8 dereferenceable(8) %0, ptr noundef %1) #0 comdat align 2 {
  %3 = alloca ptr, align 8
  %4 = alloca ptr, align 8
  store ptr %0, ptr %3, align 8
  store ptr %1, ptr %4, align 8
  %5 = load ptr, ptr %3, align 8
  %6 = getelementptr inbounds nuw %"class.llvm::PointerIntPair.465", ptr %5, i32 0, i32 0
  %7 = call noundef i64 @_ZNK4llvm6detail13PunnedPointerIPKN5clang4DeclEEcvlEv(ptr noundef nonnull align 8 dereferenceable(8) %6)
  %8 = load ptr, ptr %4, align 8
  %9 = call noundef i64 @_ZN4llvm18PointerIntPairInfoIPKN5clang4DeclELj3ENS_21PointerLikeTypeTraitsIS4_EEE13updatePointerElS4_(i64 noundef %7, ptr noundef %8)
  %10 = getelementptr inbounds nuw %"class.llvm::PointerIntPair.465", ptr %5, i32 0, i32 0
  %11 = call noundef nonnull align 8 dereferenceable(8) ptr @_ZN4llvm6detail13PunnedPointerIPKN5clang4DeclEEaSEl(ptr noundef nonnull align 8 dereferenceable(8) %10, i64 noundef %9)
  ret void
}

; Function Attrs: mustprogress nounwind uwtable
define linkonce_odr hidden void @_ZN4llvm6detail13PunnedPointerIPKN5clang4DeclEEC2El(ptr noundef nonnull align 8 dereferenceable(8) %0, i64 noundef %1) unnamed_addr #0 comdat align 2 {
  %3 = alloca ptr, align 8
  %4 = alloca i64, align 8
  store ptr %0, ptr %3, align 8
  store i64 %1, ptr %4, align 8
  %5 = load ptr, ptr %3, align 8
  %6 = load i64, ptr %4, align 8
  %7 = call noundef nonnull align 8 dereferenceable(8) ptr @_ZN4llvm6detail13PunnedPointerIPKN5clang4DeclEEaSEl(ptr noundef nonnull align 8 dereferenceable(8) %5, i64 noundef %6)
  ret void
}

; Function Attrs: mustprogress nounwind uwtable
define linkonce_odr hidden noundef ptr @_ZN4llvm16cast_convert_valIN5clang9NamedDeclEPKNS1_4DeclES5_E4doitES5_(ptr noundef %0) #0 comdat align 2 {
  %2 = alloca ptr, align 8
  store ptr %0, ptr %2, align 8
  %3 = load ptr, ptr %2, align 8
  ret ptr %3
}

; Function Attrs: mustprogress nounwind uwtable
define linkonce_odr hidden i64 @_ZNK5clang9NamedDecl11getDeclNameEv(ptr noundef nonnull align 8 dereferenceable(48) %0) #0 comdat align 2 {
  %2 = alloca %"class.clang::DeclarationName", align 8
  %3 = alloca ptr, align 8
  store ptr %0, ptr %3, align 8
  %4 = load ptr, ptr %3, align 8
  %5 = getelementptr inbounds nuw %"class.clang::NamedDecl", ptr %4, i32 0, i32 1
  call void @llvm.memcpy.p0.p0.i64(ptr align 8 %2, ptr align 8 %5, i64 8, i1 false)
  %6 = getelementptr inbounds nuw %"class.clang::DeclarationName", ptr %2, i32 0, i32 0
  %7 = load i64, ptr %6, align 8
  ret i64 %7
}

; Function Attrs: mustprogress nounwind uwtable
define linkonce_odr hidden noundef ptr @_ZNK5clang10GlobalDecl7getDeclEv(ptr noundef nonnull align 8 dereferenceable(12) %0) #0 comdat align 2 {
  %2 = alloca ptr, align 8
  store ptr %0, ptr %2, align 8
  %3 = load ptr, ptr %2, align 8
  %4 = getelementptr inbounds nuw %"class.clang::GlobalDecl", ptr %3, i32 0, i32 0
  %5 = call noundef ptr @_ZNK4llvm14PointerIntPairIPKN5clang4DeclELj3EjNS_21PointerLikeTypeTraitsIS4_EENS_18PointerIntPairInfoIS4_Lj3ES6_EEE10getPointerEv(ptr noundef nonnull align 8 dereferenceable(8) %4)
  ret ptr %5
}

; Function Attrs: mustprogress nounwind uwtable
define linkonce_odr hidden void @_ZN5clang10GlobalDecl4InitEPKNS_4DeclE(ptr noundef nonnull align 8 dereferenceable(12) %0, ptr noundef %1) #0 comdat align 2 {
  %3 = alloca ptr, align 8
  %4 = alloca ptr, align 8
  store ptr %0, ptr %3, align 8
  store ptr %1, ptr %4, align 8
  %5 = load ptr, ptr %3, align 8
  %6 = getelementptr inbounds nuw %"class.clang::GlobalDecl", ptr %5, i32 0, i32 0
  %7 = load ptr, ptr %4, align 8
  call void @_ZNR4llvm14PointerIntPairIPKN5clang4DeclELj3EjNS_21PointerLikeTypeTraitsIS4_EENS_18PointerIntPairInfoIS4_Lj3ES6_EEE10setPointerES4_(ptr noundef nonnull align 8 dereferenceable(8) %6, ptr noundef %7)
  ret void
}

; Function Attrs: mustprogress nounwind uwtable
define linkonce_odr hidden void @_ZN4llvm14PointerIntPairIPKN5clang4DeclELj3EjNS_21PointerLikeTypeTraitsIS4_EENS_18PointerIntPairInfoIS4_Lj3ES6_EEEC2Ev(ptr noundef nonnull align 8 dereferenceable(8) %0) unnamed_addr #0 comdat align 2 {
  %2 = alloca ptr, align 8
  store ptr %0, ptr %2, align 8
  %3 = load ptr, ptr %2, align 8
  %4 = getelementptr inbounds nuw %"class.llvm::PointerIntPair.465", ptr %3, i32 0, i32 0
  call void @_ZN4llvm6detail13PunnedPointerIPKN5clang4DeclEEC2El(ptr noundef nonnull align 8 dereferenceable(8) %4, i64 noundef 0)
  ret void
}

; Function Attrs: mustprogress nounwind uwtable
define linkonce_odr hidden noundef ptr @_ZN4llvm8CastInfoIN5clang9NamedDeclEPKNS1_4DeclEvE6doCastERKS5_(ptr noundef nonnull align 8 dereferenceable(8) %0) #0 comdat align 2 {
  %2 = alloca ptr, align 8
  store ptr %0, ptr %2, align 8
  %3 = load ptr, ptr %2, align 8
  %4 = load ptr, ptr %3, align 8
  %5 = call noundef ptr @_ZN4llvm16cast_convert_valIN5clang9NamedDeclEPKNS1_4DeclES5_E4doitES5_(ptr noundef %4)
  ret ptr %5
}

; Function Attrs: mustprogress nounwind uwtable
define linkonce_odr hidden noundef nonnull align 8 dereferenceable(48) ptr @_ZN4llvm11raw_ostreamlsEc(ptr noundef nonnull align 8 dereferenceable(48) %0, i8 noundef signext %1) #0 comdat align 2 {
  %3 = alloca ptr, align 8
  %4 = alloca ptr, align 8
  %5 = alloca i8, align 1
  store ptr %0, ptr %4, align 8
  store i8 %1, ptr %5, align 1
  %6 = load ptr, ptr %4, align 8
  %7 = getelementptr inbounds nuw %"class.llvm::raw_ostream", ptr %6, i32 0, i32 4
  %8 = load ptr, ptr %7, align 8
  %9 = getelementptr inbounds nuw %"class.llvm::raw_ostream", ptr %6, i32 0, i32 3
  %10 = load ptr, ptr %9, align 8
  %11 = icmp uge ptr %8, %10
  br i1 %11, label %12, label %15

12:                                               ; preds = %2
  %13 = load i8, ptr %5, align 1
  %14 = call noundef nonnull align 8 dereferenceable(48) ptr @_ZN4llvm11raw_ostream5writeEh(ptr noundef nonnull align 8 dereferenceable(48) %6, i8 noundef zeroext %13)
  store ptr %14, ptr %3, align 8
  br label %20

15:                                               ; preds = %2
  %16 = load i8, ptr %5, align 1
  %17 = getelementptr inbounds nuw %"class.llvm::raw_ostream", ptr %6, i32 0, i32 4
  %18 = load ptr, ptr %17, align 8
  %19 = getelementptr inbounds i8, ptr %18, i32 1
  store ptr %19, ptr %17, align 8
  store i8 %16, ptr %18, align 1
  store ptr %6, ptr %3, align 8
  br label %20

20:                                               ; preds = %15, %12
  %21 = load ptr, ptr %3, align 8
  ret ptr %21
}

; Function Attrs: mustprogress nounwind uwtable
define internal void @_ZN12_GLOBAL__N_123MicrosoftCXXNameMangler21mangleUnqualifiedNameEN5clang10GlobalDeclE(ptr noundef nonnull align 8 dereferenceable(593) %0, i64 %1, i32 %2) #0 align 2 {
  %4 = alloca %"class.clang::GlobalDecl", align 8
  %5 = alloca ptr, align 8
  %6 = alloca %"class.clang::GlobalDecl", align 8
  %7 = alloca %"class.clang::DeclarationName", align 8
  %8 = getelementptr inbounds nuw { i64, i32 }, ptr %4, i32 0, i32 0
  store i64 %1, ptr %8, align 8
  %9 = getelementptr inbounds nuw { i64, i32 }, ptr %4, i32 0, i32 1
  store i32 %2, ptr %9, align 8
  store ptr %0, ptr %5, align 8
  %10 = load ptr, ptr %5, align 8
  call void @llvm.memcpy.p0.p0.i64(ptr align 8 %6, ptr align 8 %4, i64 16, i1 false)
  %11 = call noundef ptr @_ZNK5clang10GlobalDecl7getDeclEv(ptr noundef nonnull align 8 dereferenceable(12) %4)
  %12 = call noundef ptr @_ZN4llvm4castIN5clang9NamedDeclEKNS1_4DeclEEEDcPT0_(ptr noundef %11)
  %13 = call i64 @_ZNK5clang9NamedDecl11getDeclNameEv(ptr noundef nonnull align 8 dereferenceable(48) %12)
  %14 = getelementptr inbounds nuw %"class.clang::DeclarationName", ptr %7, i32 0, i32 0
  store i64 %13, ptr %14, align 8
  %15 = getelementptr inbounds nuw { i64, i32 }, ptr %6, i32 0, i32 0
  %16 = load i64, ptr %15, align 8
  %17 = getelementptr inbounds nuw { i64, i32 }, ptr %6, i32 0, i32 1
  %18 = load i32, ptr %17, align 8
  %19 = getelementptr inbounds nuw %"class.clang::DeclarationName", ptr %7, i32 0, i32 0
  %20 = load i64, ptr %19, align 8
  call void @_ZN12_GLOBAL__N_123MicrosoftCXXNameMangler21mangleUnqualifiedNameEN5clang10GlobalDeclENS1_15DeclarationNameE(ptr noundef nonnull align 8 dereferenceable(593) %10, i64 %16, i32 %18, i64 %20)
  ret void
}

; Function Attrs: mustprogress nounwind uwtable
define linkonce_odr hidden void @_ZN5clang10GlobalDeclC2EPKNS_9NamedDeclE(ptr noundef nonnull align 8 dereferenceable(12) %0, ptr noundef %1) unnamed_addr #0 comdat align 2 {
  %3 = alloca ptr, align 8
  %4 = alloca ptr, align 8
  store ptr %0, ptr %3, align 8
  store ptr %1, ptr %4, align 8
  %5 = load ptr, ptr %3, align 8
  %6 = getelementptr inbounds nuw %"class.clang::GlobalDecl", ptr %5, i32 0, i32 0
  call void @_ZN4llvm14PointerIntPairIPKN5clang4DeclELj3EjNS_21PointerLikeTypeTraitsIS4_EENS_18PointerIntPairInfoIS4_Lj3ES6_EEEC2Ev(ptr noundef nonnull align 8 dereferenceable(8) %6)
  %7 = getelementptr inbounds nuw %"class.clang::GlobalDecl", ptr %5, i32 0, i32 1
  store i32 0, ptr %7, align 8
  %8 = load ptr, ptr %4, align 8
  call void @_ZN5clang10GlobalDecl4InitEPKNS_4DeclE(ptr noundef nonnull align 8 dereferenceable(12) %5, ptr noundef %8)
  ret void
}

; Function Attrs: mustprogress nounwind uwtable
define linkonce_odr hidden noundef ptr @_ZN4llvm4castIN5clang9NamedDeclEKNS1_4DeclEEEDcPT0_(ptr noundef %0) #0 comdat {
  %2 = alloca ptr, align 8
  store ptr %0, ptr %2, align 8
  %3 = call noundef ptr @_ZN4llvm8CastInfoIN5clang9NamedDeclEPKNS1_4DeclEvE6doCastERKS5_(ptr noundef nonnull align 8 dereferenceable(8) %2)
  ret ptr %3
}

; Function Attrs: mustprogress nounwind uwtable
define internal void @"_ZZN12_GLOBAL__N_123MicrosoftCXXNameMangler22mangleTemplateArgValueEN5clang8QualTypeERKNS1_7APValueENS0_10TplArgKindEbENK3$_1clEv"(ptr noundef nonnull align 8 dereferenceable(16) %0) #0 align 2 {
  %2 = alloca ptr, align 8
  %3 = alloca %"class.clang::GlobalDecl", align 8
  store ptr %0, ptr %2, align 8
  %4 = load ptr, ptr %2, align 8
  %5 = getelementptr inbounds nuw %class.anon.880, ptr %4, i32 0, i32 0
  %6 = load ptr, ptr %5, align 8
  %7 = getelementptr inbounds nuw %class.anon.880, ptr %4, i32 0, i32 1
  %8 = load ptr, ptr %7, align 8
  %9 = call noundef ptr @_ZN4llvm4castIN5clang9NamedDeclEKNS1_4DeclEEEDcPT0_(ptr noundef %8)
  call void @_ZN5clang10GlobalDeclC2EPKNS_9NamedDeclE(ptr noundef nonnull align 8 dereferenceable(12) %3, ptr noundef %9)
  %10 = getelementptr inbounds nuw { i64, i32 }, ptr %3, i32 0, i32 0
  %11 = load i64, ptr %10, align 8
  %12 = getelementptr inbounds nuw { i64, i32 }, ptr %3, i32 0, i32 1
  %13 = load i32, ptr %12, align 8
  call void @_ZN12_GLOBAL__N_123MicrosoftCXXNameMangler21mangleUnqualifiedNameEN5clang10GlobalDeclE(ptr noundef nonnull align 8 dereferenceable(593) %6, i64 %11, i32 %13)
  %14 = getelementptr inbounds nuw %"class.(anonymous namespace)::MicrosoftCXXNameMangler", ptr %6, i32 0, i32 1
  %15 = load ptr, ptr %14, align 8
  %16 = call noundef nonnull align 8 dereferenceable(48) ptr @_ZN4llvm11raw_ostreamlsEc(ptr noundef nonnull align 8 dereferenceable(48) %15, i8 noundef signext 64)
  ret void
}

; Function Attrs: mustprogress nounwind uwtable
define linkonce_odr hidden noundef ptr @_ZNKSt9_Any_data9_M_accessEv(ptr noundef nonnull align 8 dereferenceable(16) %0) #0 comdat align 2 {
  %2 = alloca ptr, align 8
  store ptr %0, ptr %2, align 8
  %3 = load ptr, ptr %2, align 8
  %4 = getelementptr inbounds [16 x i8], ptr %3, i64 0, i64 0
  ret ptr %4
}

; Function Attrs: mustprogress nounwind uwtable
define internal void @"_ZSt13__invoke_implIvRZN12_GLOBAL__N_123MicrosoftCXXNameMangler22mangleTemplateArgValueEN5clang8QualTypeERKNS2_7APValueENS1_10TplArgKindEbE3$_1JEET_St14__invoke_otherOT0_DpOT1_"(ptr noundef nonnull align 8 dereferenceable(16) %0) #0 {
  %2 = alloca ptr, align 8
  store ptr %0, ptr %2, align 8
  %3 = load ptr, ptr %2, align 8
  call void @"_ZZN12_GLOBAL__N_123MicrosoftCXXNameMangler22mangleTemplateArgValueEN5clang8QualTypeERKNS1_7APValueENS0_10TplArgKindEbENK3$_1clEv"(ptr noundef nonnull align 8 dereferenceable(16) %3)
  ret void
}

; Function Attrs: mustprogress nounwind uwtable
define internal noundef nonnull align 8 dereferenceable(16) ptr @"_ZNKSt9_Any_data9_M_accessIZN12_GLOBAL__N_123MicrosoftCXXNameMangler22mangleTemplateArgValueEN5clang8QualTypeERKNS3_7APValueENS2_10TplArgKindEbE3$_1EERKT_v"(ptr noundef nonnull align 8 dereferenceable(16) %0) #0 align 2 {
  %2 = alloca ptr, align 8
  store ptr %0, ptr %2, align 8
  %3 = load ptr, ptr %2, align 8
  %4 = call noundef ptr @_ZNKSt9_Any_data9_M_accessEv(ptr noundef nonnull align 8 dereferenceable(16) %3) #14
  ret ptr %4
}

; Function Attrs: mustprogress nounwind uwtable
define internal void @"_ZSt10__invoke_rIvRZN12_GLOBAL__N_123MicrosoftCXXNameMangler22mangleTemplateArgValueEN5clang8QualTypeERKNS2_7APValueENS1_10TplArgKindEbE3$_1JEENSt9enable_ifIX16is_invocable_r_vIT_T0_DpT1_EESB_E4typeEOSC_DpOSD_"(ptr noundef nonnull align 8 dereferenceable(16) %0) #0 {
  %2 = alloca ptr, align 8
  store ptr %0, ptr %2, align 8
  %3 = load ptr, ptr %2, align 8
  call void @"_ZSt13__invoke_implIvRZN12_GLOBAL__N_123MicrosoftCXXNameMangler22mangleTemplateArgValueEN5clang8QualTypeERKNS2_7APValueENS1_10TplArgKindEbE3$_1JEET_St14__invoke_otherOT0_DpOT1_"(ptr noundef nonnull align 8 dereferenceable(16) %3)
  ret void
}

; Function Attrs: mustprogress nounwind uwtable
define internal noundef ptr @"_ZNSt14_Function_base13_Base_managerIZN12_GLOBAL__N_123MicrosoftCXXNameMangler22mangleTemplateArgValueEN5clang8QualTypeERKNS3_7APValueENS2_10TplArgKindEbE3$_1E14_M_get_pointerERKSt9_Any_data"(ptr noundef nonnull align 8 dereferenceable(16) %0) #0 align 2 {
  %2 = alloca ptr, align 8
  %3 = alloca ptr, align 8
  store ptr %0, ptr %2, align 8
  %4 = load ptr, ptr %2, align 8
  %5 = call noundef nonnull align 8 dereferenceable(16) ptr @"_ZNKSt9_Any_data9_M_accessIZN12_GLOBAL__N_123MicrosoftCXXNameMangler22mangleTemplateArgValueEN5clang8QualTypeERKNS3_7APValueENS2_10TplArgKindEbE3$_1EERKT_v"(ptr noundef nonnull align 8 dereferenceable(16) %4) #14
  store ptr %5, ptr %3, align 8
  %6 = load ptr, ptr %3, align 8
  ret ptr %6
}

; Function Attrs: mustprogress nounwind uwtable
define internal void @"_ZNSt17_Function_handlerIFvvEZN12_GLOBAL__N_123MicrosoftCXXNameMangler22mangleTemplateArgValueEN5clang8QualTypeERKNS3_7APValueENS2_10TplArgKindEbE3$_1E9_M_invokeERKSt9_Any_data"(ptr noundef nonnull align 8 dereferenceable(16) %0) #0 align 2 {
  %2 = alloca ptr, align 8
  store ptr %0, ptr %2, align 8
  %3 = load ptr, ptr %2, align 8
  %4 = call noundef ptr @"_ZNSt14_Function_base13_Base_managerIZN12_GLOBAL__N_123MicrosoftCXXNameMangler22mangleTemplateArgValueEN5clang8QualTypeERKNS3_7APValueENS2_10TplArgKindEbE3$_1E14_M_get_pointerERKSt9_Any_data"(ptr noundef nonnull align 8 dereferenceable(16) %3) #14
  call void @"_ZSt10__invoke_rIvRZN12_GLOBAL__N_123MicrosoftCXXNameMangler22mangleTemplateArgValueEN5clang8QualTypeERKNS2_7APValueENS1_10TplArgKindEbE3$_1JEENSt9enable_ifIX16is_invocable_r_vIT_T0_DpT1_EESB_E4typeEOSC_DpOSD_"(ptr noundef nonnull align 8 dereferenceable(16) %4)
  ret void
}