; Function Attrs: mustprogress nounwind uwtable
define internal void @"_ZNSt17_Function_handlerIFvvEZN12_GLOBAL__N_123MicrosoftCXXNameMangler22mangleTemplateArgValueEN5clang8QualTypeERKNS3_7APValueENS2_10TplArgKindEbE3$_1E9_M_invokeERKSt9_Any_data"(ptr nocapture noundef nonnull readonly align 8 dereferenceable(16) %0) #0 align 2 {
  %.val = load ptr, ptr %0, align 8
  %2 = getelementptr inbounds i8, ptr %0, i64 8
  %.val1 = load ptr, ptr %2, align 8
  %3 = ptrtoint ptr %.val1 to i64
  %4 = and i64 %3, -8
  %5 = inttoptr i64 %4 to ptr
  %6 = getelementptr inbounds nuw i8, ptr %5, i64 40
  %.sroa.0.0.copyload.i.i.i.i.i = load i64, ptr %6, align 8
  tail call fastcc void @_ZN12_GLOBAL__N_123MicrosoftCXXNameMangler21mangleUnqualifiedNameEN5clang10GlobalDeclENS1_15DeclarationNameE(ptr noundef nonnull align 8 dereferenceable(593) %.val, i64 %3, i64 %.sroa.0.0.copyload.i.i.i.i.i)
  %7 = getelementptr inbounds nuw i8, ptr %.val, i64 8
  %8 = load ptr, ptr %7, align 8
  %9 = getelementptr inbounds nuw i8, ptr %8, i64 32
  %10 = load ptr, ptr %9, align 8
  %11 = getelementptr inbounds nuw i8, ptr %8, i64 24
  %12 = load ptr, ptr %11, align 8
  %.not.i.i.i.i = icmp ult ptr %10, %12
  br i1 %.not.i.i.i.i, label %15, label %13

13:                                               ; preds = %1
  %14 = tail call noundef nonnull align 8 dereferenceable(48) ptr @_ZN4llvm11raw_ostream5writeEh(ptr noundef nonnull align 8 dereferenceable(48) %8, i8 noundef zeroext 64) #21
  br label %"_ZSt10__invoke_rIvRZN12_GLOBAL__N_123MicrosoftCXXNameMangler22mangleTemplateArgValueEN5clang8QualTypeERKNS2_7APValueENS1_10TplArgKindEbE3$_1JEENSt9enable_ifIX16is_invocable_r_vIT_T0_DpT1_EESB_E4typeEOSC_DpOSD_.exit"

15:                                               ; preds = %1
  %16 = getelementptr inbounds i8, ptr %10, i64 1
  store ptr %16, ptr %9, align 8
  store i8 64, ptr %10, align 1
  br label %"_ZSt10__invoke_rIvRZN12_GLOBAL__N_123MicrosoftCXXNameMangler22mangleTemplateArgValueEN5clang8QualTypeERKNS2_7APValueENS1_10TplArgKindEbE3$_1JEENSt9enable_ifIX16is_invocable_r_vIT_T0_DpT1_EESB_E4typeEOSC_DpOSD_.exit"

"_ZSt10__invoke_rIvRZN12_GLOBAL__N_123MicrosoftCXXNameMangler22mangleTemplateArgValueEN5clang8QualTypeERKNS2_7APValueENS1_10TplArgKindEbE3$_1JEENSt9enable_ifIX16is_invocable_r_vIT_T0_DpT1_EESB_E4typeEOSC_DpOSD_.exit": ; preds = %13, %15
  ret void
}